; Function Attrs: mustprogress nounwind uwtable
define dso_local void @_ZN4llvm14DWARFFormValue18dumpAddressSectionERKNS_11DWARFObjectERNS_11raw_ostreamENS_13DIDumpOptionsEm(ptr noundef nonnull align 8 dereferenceable(32) %0, ptr noundef nonnull align 8 dereferenceable(48) %1, ptr nocapture noundef readonly %2, i64 noundef %3) local_unnamed_addr #1 align 2 {
  %5 = alloca %"class.llvm::format_object.58", align 8
  %6 = getelementptr inbounds nuw i8, ptr %2, i64 20
  %7 = load i8, ptr %6, align 4
  %8 = trunc i8 %7 to i1
  %9 = icmp ne i64 %3, -1
  %or.cond.not = and i1 %9, %8
  br i1 %or.cond.not, label %10, label %59

10:                                               ; preds = %4
  %11 = load ptr, ptr %0, align 8
  %12 = getelementptr inbounds i8, ptr %11, i64 32
  %13 = load ptr, ptr %12, align 8
  %14 = tail call { ptr, i64 } %13(ptr noundef nonnull align 8 dereferenceable(32) %0) #19
  %15 = extractvalue { ptr, i64 } %14, 0
  %16 = getelementptr inbounds %"struct.llvm::SectionName", ptr %15, i64 %3
  %17 = getelementptr inbounds nuw i8, ptr %1, i64 24
  %18 = load ptr, ptr %17, align 8
  %19 = getelementptr inbounds nuw i8, ptr %1, i64 32
  %20 = load ptr, ptr %19, align 8
  %21 = ptrtoint ptr %18 to i64
  %22 = ptrtoint ptr %20 to i64
  %23 = sub i64 %21, %22
  %24 = icmp ult i64 %23, 2
  br i1 %24, label %25, label %27

25:                                               ; preds = %10
  %26 = tail call noundef nonnull align 8 dereferenceable(48) ptr @_ZN4llvm11raw_ostream5writeEPKcm(ptr noundef nonnull align 8 dereferenceable(48) %1, ptr noundef nonnull @.str.1, i64 noundef 2) #19
  %.phi.trans.insert = getelementptr inbounds nuw i8, ptr %26, i64 32
  %.pre = load ptr, ptr %.phi.trans.insert, align 8
  br label %_ZN4llvm11raw_ostreamlsEPKc.exit

27:                                               ; preds = %10
  store i16 8736, ptr %20, align 1
  %28 = load ptr, ptr %19, align 8
  %29 = getelementptr inbounds i8, ptr %28, i64 2
  store ptr %29, ptr %19, align 8
  br label %_ZN4llvm11raw_ostreamlsEPKc.exit

_ZN4llvm11raw_ostreamlsEPKc.exit:                 ; preds = %25, %27
  %30 = phi ptr [ %.pre, %25 ], [ %29, %27 ]
  %.0.i.i = phi ptr [ %26, %25 ], [ %1, %27 ]
  %.sroa.0.0.copyload = load ptr, ptr %16, align 8
  %.sroa.2.0..sroa_idx = getelementptr inbounds i8, ptr %16, i64 8
  %.sroa.2.0.copyload = load i64, ptr %.sroa.2.0..sroa_idx, align 8
  %31 = getelementptr inbounds nuw i8, ptr %.0.i.i, i64 24
  %32 = load ptr, ptr %31, align 8
  %33 = getelementptr inbounds nuw i8, ptr %.0.i.i, i64 32
  %34 = ptrtoint ptr %32 to i64
  %35 = ptrtoint ptr %30 to i64
  %36 = sub i64 %34, %35
  %37 = icmp ugt i64 %.sroa.2.0.copyload, %36
  br i1 %37, label %38, label %40

38:                                               ; preds = %_ZN4llvm11raw_ostreamlsEPKc.exit
  %39 = tail call noundef nonnull align 8 dereferenceable(48) ptr @_ZN4llvm11raw_ostream5writeEPKcm(ptr noundef nonnull align 8 dereferenceable(48) %.0.i.i, ptr noundef %.sroa.0.0.copyload, i64 noundef %.sroa.2.0.copyload) #19
  %.phi.trans.insert10 = getelementptr inbounds nuw i8, ptr %39, i64 32
  %.pre11 = load ptr, ptr %.phi.trans.insert10, align 8
  br label %_ZN4llvm11raw_ostreamlsENS_9StringRefE.exit

40:                                               ; preds = %_ZN4llvm11raw_ostreamlsEPKc.exit
  %.not.i = icmp eq i64 %.sroa.2.0.copyload, 0
  br i1 %.not.i, label %_ZN4llvm11raw_ostreamlsENS_9StringRefE.exit, label %41

41:                                               ; preds = %40
  tail call void @llvm.memcpy.p0.p0.i64(ptr align 1 %30, ptr align 1 %.sroa.0.0.copyload, i64 %.sroa.2.0.copyload, i1 false)
  %42 = load ptr, ptr %33, align 8
  %43 = getelementptr inbounds i8, ptr %42, i64 %.sroa.2.0.copyload
  store ptr %43, ptr %33, align 8
  br label %_ZN4llvm11raw_ostreamlsENS_9StringRefE.exit

_ZN4llvm11raw_ostreamlsENS_9StringRefE.exit:      ; preds = %38, %40, %41
  %44 = phi ptr [ %.pre11, %38 ], [ %43, %41 ], [ %30, %40 ]
  %.0.i = phi ptr [ %39, %38 ], [ %.0.i.i, %41 ], [ %.0.i.i, %40 ]
  %45 = getelementptr inbounds nuw i8, ptr %.0.i, i64 24
  %46 = load ptr, ptr %45, align 8
  %.not.i7 = icmp ult ptr %44, %46
  br i1 %.not.i7, label %49, label %47

47:                                               ; preds = %_ZN4llvm11raw_ostreamlsENS_9StringRefE.exit
  %48 = tail call noundef nonnull align 8 dereferenceable(48) ptr @_ZN4llvm11raw_ostream5writeEh(ptr noundef nonnull align 8 dereferenceable(48) %.0.i, i8 noundef zeroext 34) #19
  br label %_ZN4llvm11raw_ostreamlsEc.exit

49:                                               ; preds = %_ZN4llvm11raw_ostreamlsENS_9StringRefE.exit
  %50 = getelementptr inbounds nuw i8, ptr %.0.i, i64 32
  %51 = getelementptr inbounds i8, ptr %44, i64 1
  store ptr %51, ptr %50, align 8
  store i8 34, ptr %44, align 1
  br label %_ZN4llvm11raw_ostreamlsEc.exit

_ZN4llvm11raw_ostreamlsEc.exit:                   ; preds = %47, %49
  %52 = getelementptr inbounds nuw i8, ptr %16, i64 16
  %53 = load i8, ptr %52, align 8
  %54 = trunc i8 %53 to i1
  br i1 %54, label %59, label %55

55:                                               ; preds = %_ZN4llvm11raw_ostreamlsEc.exit
  %56 = getelementptr inbounds nuw i8, ptr %5, i64 8
  store ptr @.str.2, ptr %56, align 8, !alias.scope !12
  store ptr getelementptr inbounds inrange(-16, 16) (i8, ptr @_ZTVN4llvm13format_objectIJmEEE, i64 16), ptr %5, align 8, !alias.scope !12
  %57 = getelementptr inbounds nuw i8, ptr %5, i64 16
  store i64 %3, ptr %57, align 8, !alias.scope !12
  %58 = call noundef nonnull align 8 dereferenceable(48) ptr @_ZN4llvm11raw_ostreamlsERKNS_18format_object_baseE(ptr noundef nonnull align 8 dereferenceable(48) %1, ptr noundef nonnull align 8 dereferenceable(16) %5) #19
  br label %59

59:                                               ; preds = %4, %55, %_ZN4llvm11raw_ostreamlsEc.exit
  ret void
}